target datalayout = "e-m:e-p270:32:32-p271:32:32-p272:64:64-i64:64-i128:128-f80:128-n8:16:32:64-S128"
target triple = "x86_64-pc-linux-gnu"

%struct.AggState = type { %struct.ScanState, ptr, i32, i32, i32, i32, ptr, i32, i32, ptr, ptr, ptr, ptr, ptr, ptr, ptr, ptr, i8, i8, i32, i32, ptr, ptr, ptr, i32, i8, i32, ptr, ptr, ptr, ptr, ptr, ptr, i8, i32, ptr, ptr, ptr, ptr, ptr, ptr, i8, i8, i64, i64, i32, double, i64, i64, i64, i32, ptr, ptr, ptr, ptr }
%struct.ScanState = type { %struct.PlanState, ptr, ptr, ptr }
%struct.PlanState = type { i32, ptr, ptr, ptr, ptr, ptr, ptr, ptr, ptr, ptr, ptr, ptr, ptr, ptr, ptr, ptr, ptr, ptr, i8, ptr, ptr, ptr, ptr, ptr, i8, i8, i8, i8, i8, i8, i8, i8 }
%struct.HashAggSpill = type { i32, ptr, ptr, i32, i32, ptr }
%struct.hyperLogLogState = type { i8, i64, double, ptr, i64 }
%struct.HashAggBatch = type { i32, i32, ptr, i64, double }

; Function Attrs: nounwind uwtable
define internal ptr @hashagg_batch_new(ptr noundef %0, i32 noundef %1, i64 noundef %2, double noundef %3, i32 noundef %4) #0 {
  %6 = alloca ptr, align 8
  %7 = alloca i32, align 4
  %8 = alloca i64, align 8
  %9 = alloca double, align 8
  %10 = alloca i32, align 4
  %11 = alloca ptr, align 8
  store ptr %0, ptr %6, align 8
  store i32 %1, ptr %7, align 4
  store i64 %2, ptr %8, align 8
  store double %3, ptr %9, align 8
  store i32 %4, ptr %10, align 4
  call void @llvm.lifetime.start.p0(i64 8, ptr %11) #9
  %12 = call ptr @palloc0(i64 noundef 32)
  store ptr %12, ptr %11, align 8
  %13 = load i32, ptr %7, align 4
  %14 = load ptr, ptr %11, align 8
  %15 = getelementptr inbounds nuw %struct.HashAggBatch, ptr %14, i32 0, i32 0
  store i32 %13, ptr %15, align 8
  %16 = load i32, ptr %10, align 4
  %17 = load ptr, ptr %11, align 8
  %18 = getelementptr inbounds nuw %struct.HashAggBatch, ptr %17, i32 0, i32 1
  store i32 %16, ptr %18, align 4
  %19 = load ptr, ptr %6, align 8
  %20 = load ptr, ptr %11, align 8
  %21 = getelementptr inbounds nuw %struct.HashAggBatch, ptr %20, i32 0, i32 2
  store ptr %19, ptr %21, align 8
  %22 = load i64, ptr %8, align 8
  %23 = load ptr, ptr %11, align 8
  %24 = getelementptr inbounds nuw %struct.HashAggBatch, ptr %23, i32 0, i32 3
  store i64 %22, ptr %24, align 8
  %25 = load double, ptr %9, align 8
  %26 = load ptr, ptr %11, align 8
  %27 = getelementptr inbounds nuw %struct.HashAggBatch, ptr %26, i32 0, i32 4
  store double %25, ptr %27, align 8
  %28 = load ptr, ptr %11, align 8
  call void @llvm.lifetime.end.p0(i64 8, ptr %11) #9
  ret ptr %28
}

; Function Attrs: nounwind uwtable
define internal void @hashagg_spill_finish(ptr noundef %0, ptr noundef %1, i32 noundef %2) #0 {
  %4 = alloca ptr, align 8
  %5 = alloca ptr, align 8
  %6 = alloca i32, align 4
  %7 = alloca i32, align 4
  %8 = alloca i32, align 4
  %9 = alloca i32, align 4
  %10 = alloca ptr, align 8
  %11 = alloca ptr, align 8
  %12 = alloca double, align 8
  store ptr %0, ptr %4, align 8
  store ptr %1, ptr %5, align 8
  store i32 %2, ptr %6, align 4
  call void @llvm.lifetime.start.p0(i64 4, ptr %7) #9
  call void @llvm.lifetime.start.p0(i64 4, ptr %8) #9
  %13 = load ptr, ptr %5, align 8
  %14 = getelementptr inbounds nuw %struct.HashAggSpill, ptr %13, i32 0, i32 4
  %15 = load i32, ptr %14, align 4
  %16 = sub i32 32, %15
  store i32 %16, ptr %8, align 4
  %17 = load ptr, ptr %5, align 8
  %18 = getelementptr inbounds nuw %struct.HashAggSpill, ptr %17, i32 0, i32 0
  %19 = load i32, ptr %18, align 8
  %20 = icmp eq i32 %19, 0
  br i1 %20, label %21, label %22

21:                                               ; preds = %3
  store i32 1, ptr %9, align 4
  br label %100

22:                                               ; preds = %3
  store i32 0, ptr %7, align 4
  br label %23

23:                                               ; preds = %87, %22
  %24 = load i32, ptr %7, align 4
  %25 = load ptr, ptr %5, align 8
  %26 = getelementptr inbounds nuw %struct.HashAggSpill, ptr %25, i32 0, i32 0
  %27 = load i32, ptr %26, align 8
  %28 = icmp slt i32 %24, %27
  br i1 %28, label %29, label %90

29:                                               ; preds = %23
  call void @llvm.lifetime.start.p0(i64 8, ptr %10) #9
  %30 = load ptr, ptr %5, align 8
  %31 = getelementptr inbounds nuw %struct.HashAggSpill, ptr %30, i32 0, i32 1
  %32 = load ptr, ptr %31, align 8
  %33 = load i32, ptr %7, align 4
  %34 = sext i32 %33 to i64
  %35 = getelementptr inbounds ptr, ptr %32, i64 %34
  %36 = load ptr, ptr %35, align 8
  store ptr %36, ptr %10, align 8
  call void @llvm.lifetime.start.p0(i64 8, ptr %11) #9
  call void @llvm.lifetime.start.p0(i64 8, ptr %12) #9
  %37 = load ptr, ptr %5, align 8
  %38 = getelementptr inbounds nuw %struct.HashAggSpill, ptr %37, i32 0, i32 2
  %39 = load ptr, ptr %38, align 8
  %40 = load i32, ptr %7, align 4
  %41 = sext i32 %40 to i64
  %42 = getelementptr inbounds i64, ptr %39, i64 %41
  %43 = load i64, ptr %42, align 8
  %44 = icmp eq i64 %43, 0
  br i1 %44, label %45, label %46

45:                                               ; preds = %29
  store i32 4, ptr %9, align 4
  br label %84

46:                                               ; preds = %29
  %47 = load ptr, ptr %5, align 8
  %48 = getelementptr inbounds nuw %struct.HashAggSpill, ptr %47, i32 0, i32 5
  %49 = load ptr, ptr %48, align 8
  %50 = load i32, ptr %7, align 4
  %51 = sext i32 %50 to i64
  %52 = getelementptr inbounds %struct.hyperLogLogState, ptr %49, i64 %51
  %53 = call double @estimateHyperLogLog(ptr noundef %52)
  store double %53, ptr %12, align 8
  %54 = load ptr, ptr %5, align 8
  %55 = getelementptr inbounds nuw %struct.HashAggSpill, ptr %54, i32 0, i32 5
  %56 = load ptr, ptr %55, align 8
  %57 = load i32, ptr %7, align 4
  %58 = sext i32 %57 to i64
  %59 = getelementptr inbounds %struct.hyperLogLogState, ptr %56, i64 %58
  call void @freeHyperLogLog(ptr noundef %59)
  %60 = load ptr, ptr %10, align 8
  call void @LogicalTapeRewindForRead(ptr noundef %60, i64 noundef 8192)
  %61 = load ptr, ptr %10, align 8
  %62 = load i32, ptr %6, align 4
  %63 = load ptr, ptr %5, align 8
  %64 = getelementptr inbounds nuw %struct.HashAggSpill, ptr %63, i32 0, i32 2
  %65 = load ptr, ptr %64, align 8
  %66 = load i32, ptr %7, align 4
  %67 = sext i32 %66 to i64
  %68 = getelementptr inbounds i64, ptr %65, i64 %67
  %69 = load i64, ptr %68, align 8
  %70 = load double, ptr %12, align 8
  %71 = load i32, ptr %8, align 4
  %72 = call ptr @hashagg_batch_new(ptr noundef %61, i32 noundef %62, i64 noundef %69, double noundef %70, i32 noundef %71)
  store ptr %72, ptr %11, align 8
  %73 = load ptr, ptr %4, align 8
  %74 = getelementptr inbounds nuw %struct.AggState, ptr %73, i32 0, i32 40
  %75 = load ptr, ptr %74, align 8
  %76 = load ptr, ptr %11, align 8
  %77 = call ptr @lappend(ptr noundef %75, ptr noundef %76)
  %78 = load ptr, ptr %4, align 8
  %79 = getelementptr inbounds nuw %struct.AggState, ptr %78, i32 0, i32 40
  store ptr %77, ptr %79, align 8
  %80 = load ptr, ptr %4, align 8
  %81 = getelementptr inbounds nuw %struct.AggState, ptr %80, i32 0, i32 50
  %82 = load i32, ptr %81, align 8
  %83 = add i32 %82, 1
  store i32 %83, ptr %81, align 8
  store i32 0, ptr %9, align 4
  br label %84

84:                                               ; preds = %46, %45
  call void @llvm.lifetime.end.p0(i64 8, ptr %12) #9
  call void @llvm.lifetime.end.p0(i64 8, ptr %11) #9
  call void @llvm.lifetime.end.p0(i64 8, ptr %10) #9
  %85 = load i32, ptr %9, align 4
  switch i32 %85, label %103 [
    i32 0, label %86
    i32 4, label %87
  ]

86:                                               ; preds = %84
  br label %87

87:                                               ; preds = %86, %84
  %88 = load i32, ptr %7, align 4
  %89 = add i32 %88, 1
  store i32 %89, ptr %7, align 4
  br label %23, !llvm.loop !53

90:                                               ; preds = %23
  %91 = load ptr, ptr %5, align 8
  %92 = getelementptr inbounds nuw %struct.HashAggSpill, ptr %91, i32 0, i32 2
  %93 = load ptr, ptr %92, align 8
  call void @pfree(ptr noundef %93)
  %94 = load ptr, ptr %5, align 8
  %95 = getelementptr inbounds nuw %struct.HashAggSpill, ptr %94, i32 0, i32 5
  %96 = load ptr, ptr %95, align 8
  call void @pfree(ptr noundef %96)
  %97 = load ptr, ptr %5, align 8
  %98 = getelementptr inbounds nuw %struct.HashAggSpill, ptr %97, i32 0, i32 1
  %99 = load ptr, ptr %98, align 8
  call void @pfree(ptr noundef %99)
  store i32 0, ptr %9, align 4
  br label %100

100:                                              ; preds = %90, %21
  call void @llvm.lifetime.end.p0(i64 4, ptr %8) #9
  call void @llvm.lifetime.end.p0(i64 4, ptr %7) #9
  %101 = load i32, ptr %9, align 4
  switch i32 %101, label %103 [
    i32 0, label %102
    i32 1, label %102
  ]

102:                                              ; preds = %100, %100
  ret void

103:                                              ; preds = %100, %84
  unreachable
}