; Function Attrs: nounwind uwtable
define internal fastcc void @hashagg_spill_finish(ptr noundef captures(none) %0, ptr noundef readonly captures(none) %1, i32 noundef %2) unnamed_addr #2 {
  %4 = getelementptr inbounds nuw i8, ptr %1, i64 28
  %5 = load i32, ptr %4, align 4
  %6 = sub i32 32, %5
  %7 = load i32, ptr %1, align 8
  %8 = icmp eq i32 %7, 0
  br i1 %8, label %52, label %.preheader

.preheader:                                       ; preds = %3
  %9 = icmp sgt i32 %7, 0
  br i1 %9, label %.lr.ph, label %._crit_edge

.lr.ph:                                           ; preds = %.preheader
  %10 = getelementptr inbounds nuw i8, ptr %1, i64 16
  %11 = getelementptr inbounds nuw i8, ptr %1, i64 8
  %12 = getelementptr inbounds nuw i8, ptr %1, i64 32
  %13 = getelementptr inbounds nuw i8, ptr %0, i64 480
  %14 = getelementptr inbounds nuw i8, ptr %0, i64 552
  br label %15

15:                                               ; preds = %.lr.ph, %42
  %16 = phi i32 [ %7, %.lr.ph ], [ %43, %42 ]
  %indvars.iv = phi i64 [ 0, %.lr.ph ], [ %indvars.iv.next, %42 ]
  %17 = load ptr, ptr %10, align 8
  %18 = getelementptr inbounds nuw i64, ptr %17, i64 %indvars.iv
  %19 = load i64, ptr %18, align 8
  %20 = icmp eq i64 %19, 0
  br i1 %20, label %42, label %21

21:                                               ; preds = %15
  %22 = load ptr, ptr %11, align 8
  %23 = getelementptr inbounds nuw ptr, ptr %22, i64 %indvars.iv
  %24 = load ptr, ptr %23, align 8
  %25 = load ptr, ptr %12, align 8
  %26 = getelementptr inbounds nuw %struct.hyperLogLogState, ptr %25, i64 %indvars.iv
  %27 = tail call double @estimateHyperLogLog(ptr noundef %26) #12
  %28 = load ptr, ptr %12, align 8
  %29 = getelementptr inbounds nuw %struct.hyperLogLogState, ptr %28, i64 %indvars.iv
  tail call void @freeHyperLogLog(ptr noundef %29) #12
  tail call void @LogicalTapeRewindForRead(ptr noundef %24, i64 noundef 8192) #12
  %30 = load ptr, ptr %10, align 8
  %31 = getelementptr inbounds nuw i64, ptr %30, i64 %indvars.iv
  %32 = load i64, ptr %31, align 8
  %33 = tail call ptr @palloc0(i64 noundef 32) #12
  store i32 %2, ptr %33, align 8
  %34 = getelementptr inbounds nuw i8, ptr %33, i64 4
  store i32 %6, ptr %34, align 4
  %35 = getelementptr inbounds nuw i8, ptr %33, i64 8
  store ptr %24, ptr %35, align 8
  %36 = getelementptr inbounds nuw i8, ptr %33, i64 16
  store i64 %32, ptr %36, align 8
  %37 = getelementptr inbounds nuw i8, ptr %33, i64 24
  store double %27, ptr %37, align 8
  %38 = load ptr, ptr %13, align 8
  %39 = tail call ptr @lappend(ptr noundef %38, ptr noundef nonnull %33) #12
  store ptr %39, ptr %13, align 8
  %40 = load i32, ptr %14, align 8
  %41 = add i32 %40, 1
  store i32 %41, ptr %14, align 8
  %.pre = load i32, ptr %1, align 8
  br label %42

42:                                               ; preds = %15, %21
  %43 = phi i32 [ %16, %15 ], [ %.pre, %21 ]
  %indvars.iv.next = add nuw nsw i64 %indvars.iv, 1
  %44 = sext i32 %43 to i64
  %45 = icmp slt i64 %indvars.iv.next, %44
  br i1 %45, label %15, label %._crit_edge, !llvm.loop !49

._crit_edge:                                      ; preds = %42, %.preheader
  %46 = getelementptr inbounds nuw i8, ptr %1, i64 16
  %47 = load ptr, ptr %46, align 8
  tail call void @pfree(ptr noundef %47) #12
  %48 = getelementptr inbounds nuw i8, ptr %1, i64 32
  %49 = load ptr, ptr %48, align 8
  tail call void @pfree(ptr noundef %49) #12
  %50 = getelementptr inbounds nuw i8, ptr %1, i64 8
  %51 = load ptr, ptr %50, align 8
  tail call void @pfree(ptr noundef %51) #12
  br label %52

52:                                               ; preds = %3, %._crit_edge
  ret void
}